TN:
SF:/home/yackey/projects/webasm/basicMath/test/main.cpp
FN:7,main
FNDA:3,main
DA:7,3
DA:8,3
DA:9,3
end_of_record
SF:/usr/local/include/gtest/gtest.h
FN:2472,_Z13RUN_ALL_TESTSv
FNDA:3,_Z13RUN_ALL_TESTSv
DA:2472,3
DA:2473,3
end_of_record
SF:/usr/include/c++/11/iostream
end_of_record
TN:
SF:/usr/include/c++/11/ext/type_traits.h
FN:152,_ZN9__gnu_cxx17__is_null_pointerIcEEbPT_
FNDA:24,_ZN9__gnu_cxx17__is_null_pointerIcEEbPT_
FN:152,_ZN9__gnu_cxx17__is_null_pointerIKcEEbPT_
FNDA:27,_ZN9__gnu_cxx17__is_null_pointerIKcEEbPT_
DA:152,24
DA:153,24
DA:152,27
DA:153,27
end_of_record
SF:/usr/include/c++/11/bits/char_traits.h
FN:106,_ZN9__gnu_cxx11char_traitsIcE2eqERKcS3_
FNDA:0,_ZN9__gnu_cxx11char_traitsIcE2eqERKcS3_
FN:167,_ZN9__gnu_cxx11char_traitsIcE6lengthEPKc
FNDA:0,_ZN9__gnu_cxx11char_traitsIcE6lengthEPKc
FN:240,_ZN9__gnu_cxx11char_traitsIcE4copyEPcPKcm
FNDA:0,_ZN9__gnu_cxx11char_traitsIcE4copyEPcPKcm
FN:356,_ZNSt11char_traitsIcE6assignERcRKc
FNDA:51,_ZNSt11char_traitsIcE6assignERcRKc
FN:393,_ZNSt11char_traitsIcE6lengthEPKc
FNDA:24,_ZNSt11char_traitsIcE6lengthEPKc
FN:429,_ZNSt11char_traitsIcE4copyEPcPKcm
FNDA:51,_ZNSt11char_traitsIcE4copyEPcPKcm
DA:106,0
DA:107,0
DA:167,0
DA:170,0
DA:171,0
DA:172,0
DA:173,0
DA:240,0
DA:244,0
DA:245,0
DA:290,24
DA:356,51
DA:357,51
DA:393,24
DA:396,24
DA:397,0
DA:399,24
DA:429,51
DA:431,51
DA:432,0
DA:434,51
DA:435,0
DA:437,51
end_of_record
SF:/usr/include/c++/11/bits/allocator.h
DA:182,477
DA:183,0
DA:185,477
DA:193,48
DA:195,0
DA:196,0
DA:199,48
end_of_record
SF:/usr/include/c++/11/bits/stl_iterator_base_types.h
FN:238,_ZSt19__iterator_categoryIPKcENSt15iterator_traitsIT_E17iterator_categoryERKS3_
FNDA:27,_ZSt19__iterator_categoryIPKcENSt15iterator_traitsIT_E17iterator_categoryERKS3_
FN:238,_ZSt19__iterator_categoryIPcENSt15iterator_traitsIT_E17iterator_categoryERKS2_
FNDA:24,_ZSt19__iterator_categoryIPcENSt15iterator_traitsIT_E17iterator_categoryERKS2_
DA:238,27
DA:239,27
DA:238,24
DA:239,24
end_of_record
SF:/usr/include/c++/11/bits/stl_algobase.h
FN:313,_ZSt12__niter_baseIPcET_S1_
FNDA:0,_ZSt12__niter_baseIPcET_S1_
FN:313,_ZSt12__niter_baseIPKcET_S2_
FNDA:0,_ZSt12__niter_baseIPKcET_S2_
FN:335,_ZSt12__niter_wrapIPcET_RKS1_S1_
FNDA:0,_ZSt12__niter_wrapIPcET_RKS1_S1_
FN:380,_ZNSt11__copy_moveILb0ELb0ESt26random_access_iterator_tagE8__copy_mIPKcPcEET0_T_S7_S6_
FNDA:0,_ZNSt11__copy_moveILb0ELb0ESt26random_access_iterator_tagE8__copy_mIPKcPcEET0_T_S7_S6_
FN:420,_ZNSt11__copy_moveILb0ELb1ESt26random_access_iterator_tagE8__copy_mIcEEPT_PKS3_S6_S4_
FNDA:0,_ZNSt11__copy_moveILb0ELb1ESt26random_access_iterator_tagE8__copy_mIcEEPT_PKS3_S6_S4_
FN:486,_ZSt14__copy_move_a2ILb0EPKcPcET1_T0_S4_S3_
FNDA:0,_ZSt14__copy_move_a2ILb0EPKcPcET1_T0_S4_S3_
FN:521,_ZSt14__copy_move_a1ILb0EPKcPcET1_T0_S4_S3_
FNDA:0,_ZSt14__copy_move_a1ILb0EPKcPcET1_T0_S4_S3_
FN:527,_ZSt13__copy_move_aILb0EPKcPcET1_T0_S4_S3_
FNDA:0,_ZSt13__copy_move_aILb0EPKcPcET1_T0_S4_S3_
FN:611,_ZSt4copyIPKcPcET0_T_S4_S3_
FNDA:0,_ZSt4copyIPKcPcET0_T_S4_S3_
DA:313,0
DA:315,0
DA:313,0
DA:315,0
DA:335,0
DA:336,0
DA:380,0
DA:383,0
DA:385,0
DA:386,0
DA:387,0
DA:389,0
DA:420,0
DA:429,0
DA:430,0
DA:431,0
DA:432,0
DA:486,0
DA:490,0
DA:492,0
DA:495,0
DA:521,0
DA:522,0
DA:527,0
DA:529,0
DA:532,0
DA:611,0
DA:620,0
end_of_record
SF:/usr/include/c++/11/ext/alloc_traits.h
FN:97,_ZN9__gnu_cxx14__alloc_traitsISaIcEcE17_S_select_on_copyERKS1_
FNDA:24,_ZN9__gnu_cxx14__alloc_traitsISaIcEcE17_S_select_on_copyERKS1_
DA:97,24
DA:98,24
end_of_record
SF:/usr/local/include/gtest/gtest-printers.h
FN:260,_ZN16testing_internal26DefaultPrintNonContainerToIiEEvRKT_PSo
FNDA:0,_ZN16testing_internal26DefaultPrintNonContainerToIiEEvRKT_PSo
FN:313,_ZN7testing8internal19FormatForComparisonIiiE6FormatB5cxx11ERKi
FNDA:0,_ZN7testing8internal19FormatForComparisonIiiE6FormatB5cxx11ERKi
FN:377,_ZN7testing8internal33FormatForComparisonFailureMessageIiiEENSt7__cxx1112basic_stringIcSt11char_traitsIcESaIcEEERKT_RKT0_
FNDA:0,_ZN7testing8internal33FormatForComparisonFailureMessageIiiEENSt7__cxx1112basic_stringIcSt11char_traitsIcESaIcEEERKT_RKT0_
FN:466,_ZN7testing8internal14DefaultPrintToIiEEvNS0_15WrapPrinterTypeILNS0_18DefaultPrinterTypeE3EEERKT_PSo
FNDA:0,_ZN7testing8internal14DefaultPrintToIiEEvNS0_15WrapPrinterTypeILNS0_18DefaultPrinterTypeE3EEERKT_PSo
FN:483,_ZN7testing8internal7PrintToIiEEvRKT_PSo
FNDA:0,_ZN7testing8internal7PrintToIiEEvRKT_PSo
FN:670,_ZN7testing8internal16UniversalPrinterIiE5PrintERKiPSo
FNDA:0,_ZN7testing8internal16UniversalPrinterIiE5PrintERKiPSo
FN:796,_ZN7testing8internal21UniversalTersePrinterIiE5PrintERKiPSo
FNDA:0,_ZN7testing8internal21UniversalTersePrinterIiE5PrintERKiPSo
FN:865,_ZN7testing8internal14UniversalPrintIiEEvRKT_PSo
FNDA:0,_ZN7testing8internal14UniversalPrintIiEEvRKT_PSo
FN:915,_ZN7testing13PrintToStringIiEENSt7__cxx1112basic_stringIcSt11char_traitsIcESaIcEEERKT_
FNDA:0,_ZN7testing13PrintToStringIiEENSt7__cxx1112basic_stringIcSt11char_traitsIcESaIcEEERKT_
DA:260,0
DA:287,0
DA:288,0
DA:313,0
DA:314,0
DA:377,0
DA:379,0
DA:466,0
DA:468,0
DA:469,0
DA:483,0
DA:503,0
DA:514,0
DA:670,0
DA:679,0
DA:680,0
DA:796,0
DA:797,0
DA:798,0
DA:865,0
DA:869,0
DA:870,0
DA:915,0
DA:916,0
DA:917,0
DA:918,0
DA:919,0
end_of_record
SF:/usr/include/c++/11/bits/alloc_traits.h
FN:463,_ZNSt16allocator_traitsISaIcEE8allocateERS0_m
FNDA:477,_ZNSt16allocator_traitsISaIcEE8allocateERS0_m
FN:495,_ZNSt16allocator_traitsISaIcEE10deallocateERS0_Pcm
FNDA:48,_ZNSt16allocator_traitsISaIcEE10deallocateERS0_Pcm
FN:547,_ZNSt16allocator_traitsISaIcEE8max_sizeERKS0_
FNDA:588,_ZNSt16allocator_traitsISaIcEE8max_sizeERKS0_
FN:562,_ZNSt16allocator_traitsISaIcEE37select_on_container_copy_constructionERKS0_
FNDA:24,_ZNSt16allocator_traitsISaIcEE37select_on_container_copy_constructionERKS0_
DA:463,477
DA:464,477
DA:495,48
DA:496,48
DA:547,588
DA:552,588
DA:562,24
DA:563,24
end_of_record
SF:/usr/include/c++/11/iostream
end_of_record
SF:/usr/include/c++/11/bits/cpp_type_traits.h
FN:560,_ZSt12__miter_baseIPKcET_S2_
FNDA:0,_ZSt12__miter_baseIPKcET_S2_
DA:560,0
DA:561,0
end_of_record
SF:/usr/local/include/gtest/gtest-message.h
end_of_record
SF:/usr/local/include/gtest/internal/gtest-internal.h
FN:423,_ZN7testing8internal9GetTypeIdI13BasicMathTestEEPKvv
FNDA:24,_ZN7testing8internal9GetTypeIdI13BasicMathTestEEPKvv
FN:442,_ZN7testing8internal15TestFactoryBaseD0Ev
FNDA:0,_ZN7testing8internal15TestFactoryBaseD0Ev
FN:442,_ZN7testing8internal15TestFactoryBaseD2Ev
FNDA:24,_ZN7testing8internal15TestFactoryBaseD2Ev
FN:449,_ZN7testing8internal15TestFactoryBaseC2Ev
FNDA:24,_ZN7testing8internal15TestFactoryBaseC2Ev
FN:460,_ZN7testing8internal15TestFactoryImplI49BasicMathTest_BasicMath_AddTwoInts_ExpectSum_TestE10CreateTestEv
FNDA:3,_ZN7testing8internal15TestFactoryImplI49BasicMathTest_BasicMath_AddTwoInts_ExpectSum_TestE10CreateTestEv
FN:460,_ZN7testing8internal15TestFactoryImplI69BasicMathTest_BasicMath_SubtractTwoInts_ExpectPositiveDifference_TestE10CreateTestEv
FNDA:3,_ZN7testing8internal15TestFactoryImplI69BasicMathTest_BasicMath_SubtractTwoInts_ExpectPositiveDifference_TestE10CreateTestEv
FN:460,_ZN7testing8internal15TestFactoryImplI69BasicMathTest_BasicMath_SubtractTwoInts_ExpectNegativeDifference_TestE10CreateTestEv
FNDA:3,_ZN7testing8internal15TestFactoryImplI69BasicMathTest_BasicMath_SubtractTwoInts_ExpectNegativeDifference_TestE10CreateTestEv
FN:460,_ZN7testing8internal15TestFactoryImplI59BasicMathTest_BasicMath_MultiplytTwoInts_ExpectProduct_TestE10CreateTestEv
FNDA:3,_ZN7testing8internal15TestFactoryImplI59BasicMathTest_BasicMath_MultiplytTwoInts_ExpectProduct_TestE10CreateTestEv
FN:460,_ZN7testing8internal15TestFactoryImplI69BasicMathTest_BasicMath_DivideTwoInts_NeitherZero_ExpectQuotient_TestE10CreateTestEv
FNDA:3,_ZN7testing8internal15TestFactoryImplI69BasicMathTest_BasicMath_DivideTwoInts_NeitherZero_ExpectQuotient_TestE10CreateTestEv
FN:460,_ZN7testing8internal15TestFactoryImplI65BasicMathTest_BasicMath_DivideTwoInts_NeitherZero_ExpectZero_TestE10CreateTestEv
FNDA:3,_ZN7testing8internal15TestFactoryImplI65BasicMathTest_BasicMath_DivideTwoInts_NeitherZero_ExpectZero_TestE10CreateTestEv
FN:460,_ZN7testing8internal15TestFactoryImplI65BasicMathTest_BasicMath_DivideTwoInts_DivisorZero_ExpectZero_TestE10CreateTestEv
FNDA:3,_ZN7testing8internal15TestFactoryImplI65BasicMathTest_BasicMath_DivideTwoInts_DivisorZero_ExpectZero_TestE10CreateTestEv
FN:460,_ZN7testing8internal15TestFactoryImplI66BasicMathTest_BasicMath_DivideTwoInts_DividendZero_ExpectZero_TestE10CreateTestEv
FNDA:3,_ZN7testing8internal15TestFactoryImplI66BasicMathTest_BasicMath_DivideTwoInts_DividendZero_ExpectZero_TestE10CreateTestEv
FN:481,_ZN7testing8internal12CodeLocationC2ERKNSt7__cxx1112basic_stringIcSt11char_traitsIcESaIcEEEi
FNDA:24,_ZN7testing8internal12CodeLocationC2ERKNSt7__cxx1112basic_stringIcSt11char_traitsIcESaIcEEEi
FN:494,_ZN7testing8internal19GetNotDefaultOrNullEPFvvES2_
FNDA:96,_ZN7testing8internal19GetNotDefaultOrNullEPFvvES2_
FN:509,_ZN7testing8internal16SuiteApiResolverI13BasicMathTestE19GetSetUpCaseOrSuiteEPKci
FNDA:24,_ZN7testing8internal16SuiteApiResolverI13BasicMathTestE19GetSetUpCaseOrSuiteEPKci
FN:524,_ZN7testing8internal16SuiteApiResolverI13BasicMathTestE22GetTearDownCaseOrSuiteEPKci
FNDA:24,_ZN7testing8internal16SuiteApiResolverI13BasicMathTestE22GetTearDownCaseOrSuiteEPKci
DA:423,24
DA:428,24
DA:442,0
DA:442,24
DA:449,24
DA:460,3
DA:460,3
DA:460,3
DA:460,3
DA:460,3
DA:460,3
DA:460,3
DA:460,3
DA:481,24
DA:482,24
DA:494,96
DA:496,96
DA:509,24
DA:512,24
DA:514,24
DA:516,24
DA:519,0
DA:521,24
DA:524,24
DA:527,24
DA:529,24
DA:531,24
DA:534,0
DA:536,24
end_of_record
SF:/usr/include/c++/11/bits/stl_iterator_base_funcs.h
FN:98,_ZSt10__distanceIPcENSt15iterator_traitsIT_E15difference_typeES2_S2_St26random_access_iterator_tag
FNDA:24,_ZSt10__distanceIPcENSt15iterator_traitsIT_E15difference_typeES2_S2_St26random_access_iterator_tag
FN:98,_ZSt10__distanceIPKcENSt15iterator_traitsIT_E15difference_typeES3_S3_St26random_access_iterator_tag
FNDA:27,_ZSt10__distanceIPKcENSt15iterator_traitsIT_E15difference_typeES3_S3_St26random_access_iterator_tag
FN:138,_ZSt8distanceIPcENSt15iterator_traitsIT_E15difference_typeES2_S2_
FNDA:24,_ZSt8distanceIPcENSt15iterator_traitsIT_E15difference_typeES2_S2_
FN:138,_ZSt8distanceIPKcENSt15iterator_traitsIT_E15difference_typeES3_S3_
FNDA:27,_ZSt8distanceIPKcENSt15iterator_traitsIT_E15difference_typeES3_S3_
DA:98,24
DA:104,24
DA:98,27
DA:104,27
DA:138,24
DA:141,24
DA:142,48
DA:138,27
DA:141,27
DA:142,54
end_of_record
SF:/usr/include/c++/11/ext/new_allocator.h
FN:79,_ZN9__gnu_cxx13new_allocatorIcEC2Ev
FNDA:0,_ZN9__gnu_cxx13new_allocatorIcEC2Ev
FN:82,_ZN9__gnu_cxx13new_allocatorIcEC2ERKS1_
FNDA:0,_ZN9__gnu_cxx13new_allocatorIcEC2ERKS1_
FN:103,_ZN9__gnu_cxx13new_allocatorIcE8allocateEmPKv
FNDA:477,_ZN9__gnu_cxx13new_allocatorIcE8allocateEmPKv
FN:132,_ZN9__gnu_cxx13new_allocatorIcE10deallocateEPcm
FNDA:48,_ZN9__gnu_cxx13new_allocatorIcE10deallocateEPcm
FN:197,_ZNK9__gnu_cxx13new_allocatorIcE11_M_max_sizeEv
FNDA:477,_ZNK9__gnu_cxx13new_allocatorIcE11_M_max_sizeEv
DA:79,0
DA:82,0
DA:103,477
DA:111,477
DA:117,0
DA:127,477
DA:132,48
DA:145,48
DA:197,477
DA:200,477
end_of_record
SF:/home/yackey/projects/webasm/basicMath/include/basicMath.h
FN:6,_ZN9basicMathC2Ev
FNDA:24,_ZN9basicMathC2Ev
FN:7,_ZN9basicMathD0Ev
FNDA:24,_ZN9basicMathD0Ev
FN:7,_ZN9basicMathD2Ev
FNDA:24,_ZN9basicMathD2Ev
DA:6,24
DA:7,24
DA:7,24
end_of_record
SF:/usr/include/c++/11/bits/ptr_traits.h
FN:149,_ZNSt14pointer_traitsIPKcE10pointer_toERS0_
FNDA:81,_ZNSt14pointer_traitsIPKcE10pointer_toERS0_
FN:149,_ZNSt14pointer_traitsIPcE10pointer_toERc
FNDA:48,_ZNSt14pointer_traitsIPcE10pointer_toERc
DA:149,81
DA:150,81
DA:149,48
DA:150,48
end_of_record
SF:/usr/include/c++/11/type_traits
FN:3418,_ZSt21is_constant_evaluatedv
FNDA:576,_ZSt21is_constant_evaluatedv
DA:3418,576
DA:3419,576
end_of_record
SF:/usr/local/include/gtest/internal/gtest-port.h
FN:957,_ZN7testing8internal8GTestLog9GetStreamEv
FNDA:0,_ZN7testing8internal8GTestLog9GetStreamEv
DA:957,0
end_of_record
SF:/usr/include/c++/11/bits/basic_string.h
FN:164,_ZNSt7__cxx1112basic_stringIcSt11char_traitsIcESaIcEE12_Alloc_hiderC2EPcRKS3_
FNDA:24,_ZNSt7__cxx1112basic_stringIcSt11char_traitsIcESaIcEE12_Alloc_hiderC2EPcRKS3_
FN:167,_ZNSt7__cxx1112basic_stringIcSt11char_traitsIcESaIcEE12_Alloc_hiderC2EPcOS3_
FNDA:24,_ZNSt7__cxx1112basic_stringIcSt11char_traitsIcESaIcEE12_Alloc_hiderC2EPcOS3_
FN:186,_ZNSt7__cxx1112basic_stringIcSt11char_traitsIcESaIcEE7_M_dataEPc
FNDA:48,_ZNSt7__cxx1112basic_stringIcSt11char_traitsIcESaIcEE7_M_dataEPc
FN:190,_ZNSt7__cxx1112basic_stringIcSt11char_traitsIcESaIcEE9_M_lengthEm
FNDA:51,_ZNSt7__cxx1112basic_stringIcSt11char_traitsIcESaIcEE9_M_lengthEm
FN:194,_ZNKSt7__cxx1112basic_stringIcSt11char_traitsIcESaIcEE7_M_dataEv
FNDA:279,_ZNKSt7__cxx1112basic_stringIcSt11char_traitsIcESaIcEE7_M_dataEv
FN:198,_ZNSt7__cxx1112basic_stringIcSt11char_traitsIcESaIcEE13_M_local_dataEv
FNDA:48,_ZNSt7__cxx1112basic_stringIcSt11char_traitsIcESaIcEE13_M_local_dataEv
FN:208,_ZNKSt7__cxx1112basic_stringIcSt11char_traitsIcESaIcEE13_M_local_dataEv
FNDA:81,_ZNKSt7__cxx1112basic_stringIcSt11char_traitsIcESaIcEE13_M_local_dataEv
FN:218,_ZNSt7__cxx1112basic_stringIcSt11char_traitsIcESaIcEE11_M_capacityEm
FNDA:48,_ZNSt7__cxx1112basic_stringIcSt11char_traitsIcESaIcEE11_M_capacityEm
FN:222,_ZNSt7__cxx1112basic_stringIcSt11char_traitsIcESaIcEE13_M_set_lengthEm
FNDA:51,_ZNSt7__cxx1112basic_stringIcSt11char_traitsIcESaIcEE13_M_set_lengthEm
FN:229,_ZNKSt7__cxx1112basic_stringIcSt11char_traitsIcESaIcEE11_M_is_localEv
FNDA:81,_ZNKSt7__cxx1112basic_stringIcSt11char_traitsIcESaIcEE11_M_is_localEv
FN:237,_ZNSt7__cxx1112basic_stringIcSt11char_traitsIcESaIcEE10_M_disposeEv
FNDA:81,_ZNSt7__cxx1112basic_stringIcSt11char_traitsIcESaIcEE10_M_disposeEv
FN:244,_ZNSt7__cxx1112basic_stringIcSt11char_traitsIcESaIcEE10_M_destroyEm
FNDA:48,_ZNSt7__cxx1112basic_stringIcSt11char_traitsIcESaIcEE10_M_destroyEm
FN:251,_ZNSt7__cxx1112basic_stringIcSt11char_traitsIcESaIcEE16_M_construct_auxIPcEEvT_S7_St12__false_type
FNDA:24,_ZNSt7__cxx1112basic_stringIcSt11char_traitsIcESaIcEE16_M_construct_auxIPcEEvT_S7_St12__false_type
FN:271,_ZNSt7__cxx1112basic_stringIcSt11char_traitsIcESaIcEE12_M_constructIPcEEvT_S7_
FNDA:24,_ZNSt7__cxx1112basic_stringIcSt11char_traitsIcESaIcEE12_M_constructIPcEEvT_S7_
FN:294,_ZNSt7__cxx1112basic_stringIcSt11char_traitsIcESaIcEE16_M_get_allocatorEv
FNDA:525,_ZNSt7__cxx1112basic_stringIcSt11char_traitsIcESaIcEE16_M_get_allocatorEv
FN:298,_ZNKSt7__cxx1112basic_stringIcSt11char_traitsIcESaIcEE16_M_get_allocatorEv
FNDA:612,_ZNKSt7__cxx1112basic_stringIcSt11char_traitsIcESaIcEE16_M_get_allocatorEv
FN:354,_ZNSt7__cxx1112basic_stringIcSt11char_traitsIcESaIcEE7_S_copyEPcPKcm
FNDA:51,_ZNSt7__cxx1112basic_stringIcSt11char_traitsIcESaIcEE7_S_copyEPcPKcm
FN:400,_ZNSt7__cxx1112basic_stringIcSt11char_traitsIcESaIcEE13_S_copy_charsEPcS5_S5_
FNDA:24,_ZNSt7__cxx1112basic_stringIcSt11char_traitsIcESaIcEE13_S_copy_charsEPcS5_S5_
FN:404,_ZNSt7__cxx1112basic_stringIcSt11char_traitsIcESaIcEE13_S_copy_charsEPcPKcS7_
FNDA:27,_ZNSt7__cxx1112basic_stringIcSt11char_traitsIcESaIcEE13_S_copy_charsEPcPKcS7_
FN:456,_ZNSt7__cxx1112basic_stringIcSt11char_traitsIcESaIcEEC2ERKS4_
FNDA:24,_ZNSt7__cxx1112basic_stringIcSt11char_traitsIcESaIcEEC2ERKS4_
FN:533,_ZNSt7__cxx1112basic_stringIcSt11char_traitsIcESaIcEEC2IS3_EEPKcRKS3_
FNDA:24,_ZNSt7__cxx1112basic_stringIcSt11char_traitsIcESaIcEEC2IS3_EEPKcRKS3_
FN:671,_ZNSt7__cxx1112basic_stringIcSt11char_traitsIcESaIcEED2Ev
FNDA:75,_ZNSt7__cxx1112basic_stringIcSt11char_traitsIcESaIcEED2Ev
FN:926,_ZNKSt7__cxx1112basic_stringIcSt11char_traitsIcESaIcEE6lengthEv
FNDA:24,_ZNKSt7__cxx1112basic_stringIcSt11char_traitsIcESaIcEE6lengthEv
FN:931,_ZNKSt7__cxx1112basic_stringIcSt11char_traitsIcESaIcEE8max_sizeEv
FNDA:588,_ZNKSt7__cxx1112basic_stringIcSt11char_traitsIcESaIcEE8max_sizeEv
FN:2320,_ZNKSt7__cxx1112basic_stringIcSt11char_traitsIcESaIcEE5c_strEv
FNDA:0,_ZNKSt7__cxx1112basic_stringIcSt11char_traitsIcESaIcEE5c_strEv
DA:164,24
DA:165,24
DA:167,24
DA:168,24
DA:186,48
DA:187,48
DA:190,51
DA:191,51
DA:194,279
DA:195,279
DA:198,48
DA:201,48
DA:208,81
DA:211,81
DA:218,48
DA:219,48
DA:222,51
DA:224,51
DA:225,51
DA:226,51
DA:229,81
DA:230,81
DA:237,81
DA:239,81
DA:240,48
DA:241,81
DA:244,48
DA:245,48
DA:251,24
DA:255,24
DA:256,24
DA:271,24
DA:274,24
DA:275,24
DA:294,525
DA:295,525
DA:298,612
DA:299,612
DA:354,51
DA:356,51
DA:357,0
DA:359,51
DA:360,51
DA:400,24
DA:401,24
DA:404,27
DA:406,27
DA:456,24
DA:457,24
DA:458,24
DA:459,24
DA:533,24
DA:534,24
DA:536,24
DA:539,24
DA:540,24
DA:671,75
DA:672,75
DA:926,24
DA:927,24
DA:931,588
DA:932,588
DA:2320,0
DA:2321,0
end_of_record
SF:/usr/include/c++/11/bits/basic_string.tcc
FN:132,_ZNSt7__cxx1112basic_stringIcSt11char_traitsIcESaIcEE9_M_createERmm
FNDA:477,_ZNSt7__cxx1112basic_stringIcSt11char_traitsIcESaIcEE9_M_createERmm
FN:206,_ZNSt7__cxx1112basic_stringIcSt11char_traitsIcESaIcEE12_M_constructIPcEEvT_S7_St20forward_iterator_tag
FNDA:24,_ZNSt7__cxx1112basic_stringIcSt11char_traitsIcESaIcEE12_M_constructIPcEEvT_S7_St20forward_iterator_tag
FN:206,_ZNSt7__cxx1112basic_stringIcSt11char_traitsIcESaIcEE12_M_constructIPKcEEvT_S8_St20forward_iterator_tag
FNDA:27,_ZNSt7__cxx1112basic_stringIcSt11char_traitsIcESaIcEE12_M_constructIPKcEEvT_S8_St20forward_iterator_tag
DA:132,477
DA:137,477
DA:138,0
DA:143,477
DA:145,111
DA:147,111
DA:148,0
DA:153,477
DA:206,24
DA:211,24
DA:212,0
DA:215,24
DA:217,24
DA:219,24
DA:220,24
DA:225,24
DA:232,24
DA:233,24
DA:206,27
DA:211,27
DA:212,0
DA:215,27
DA:217,27
DA:219,24
DA:220,24
DA:225,27
DA:232,27
DA:233,27
end_of_record
SF:/usr/include/c++/11/bits/unique_ptr.h
FN:79,_ZNKSt14default_deleteINSt7__cxx1118basic_stringstreamIcSt11char_traitsIcESaIcEEEEclEPS5_
FNDA:0,_ZNKSt14default_deleteINSt7__cxx1118basic_stringstreamIcSt11char_traitsIcESaIcEEEEclEPS5_
FN:79,_ZNKSt14default_deleteI9basicMathEclEPS0_
FNDA:24,_ZNKSt14default_deleteI9basicMathEclEPS0_
FN:79,_ZNKSt14default_deleteINSt7__cxx1112basic_stringIcSt11char_traitsIcESaIcEEEEclEPS5_
FNDA:0,_ZNKSt14default_deleteINSt7__cxx1112basic_stringIcSt11char_traitsIcESaIcEEEEclEPS5_
FN:155,_ZNSt15__uniq_ptr_implI9basicMathSt14default_deleteIS0_EEC2EPS0_
FNDA:24,_ZNSt15__uniq_ptr_implI9basicMathSt14default_deleteIS0_EEC2EPS0_
FN:172,_ZNSt15__uniq_ptr_implINSt7__cxx1118basic_stringstreamIcSt11char_traitsIcESaIcEEESt14default_deleteIS5_EE6_M_ptrEv
FNDA:0,_ZNSt15__uniq_ptr_implINSt7__cxx1118basic_stringstreamIcSt11char_traitsIcESaIcEEESt14default_deleteIS5_EE6_M_ptrEv
FN:172,_ZNSt15__uniq_ptr_implINSt7__cxx1112basic_stringIcSt11char_traitsIcESaIcEEESt14default_deleteIS5_EE6_M_ptrEv
FNDA:24,_ZNSt15__uniq_ptr_implINSt7__cxx1112basic_stringIcSt11char_traitsIcESaIcEEESt14default_deleteIS5_EE6_M_ptrEv
FN:172,_ZNSt15__uniq_ptr_implI9basicMathSt14default_deleteIS0_EE6_M_ptrEv
FNDA:48,_ZNSt15__uniq_ptr_implI9basicMathSt14default_deleteIS0_EE6_M_ptrEv
FN:173,_ZNKSt15__uniq_ptr_implI9basicMathSt14default_deleteIS0_EE6_M_ptrEv
FNDA:24,_ZNKSt15__uniq_ptr_implI9basicMathSt14default_deleteIS0_EE6_M_ptrEv
FN:173,_ZNKSt15__uniq_ptr_implINSt7__cxx1112basic_stringIcSt11char_traitsIcESaIcEEESt14default_deleteIS5_EE6_M_ptrEv
FNDA:0,_ZNKSt15__uniq_ptr_implINSt7__cxx1112basic_stringIcSt11char_traitsIcESaIcEEESt14default_deleteIS5_EE6_M_ptrEv
FN:174,_ZNSt15__uniq_ptr_implI9basicMathSt14default_deleteIS0_EE10_M_deleterEv
FNDA:24,_ZNSt15__uniq_ptr_implI9basicMathSt14default_deleteIS0_EE10_M_deleterEv
FN:174,_ZNSt15__uniq_ptr_implINSt7__cxx1118basic_stringstreamIcSt11char_traitsIcESaIcEEESt14default_deleteIS5_EE10_M_deleterEv
FNDA:0,_ZNSt15__uniq_ptr_implINSt7__cxx1118basic_stringstreamIcSt11char_traitsIcESaIcEEESt14default_deleteIS5_EE10_M_deleterEv
FN:174,_ZNSt15__uniq_ptr_implINSt7__cxx1112basic_stringIcSt11char_traitsIcESaIcEEESt14default_deleteIS5_EE10_M_deleterEv
FNDA:0,_ZNSt15__uniq_ptr_implINSt7__cxx1112basic_stringIcSt11char_traitsIcESaIcEEESt14default_deleteIS5_EE10_M_deleterEv
FN:281,_ZNSt10unique_ptrI9basicMathSt14default_deleteIS0_EEC2IS2_vEEPS0_
FNDA:24,_ZNSt10unique_ptrI9basicMathSt14default_deleteIS0_EEC2IS2_vEEPS0_
FN:355,_ZNSt10unique_ptrI9basicMathSt14default_deleteIS0_EED2Ev
FNDA:24,_ZNSt10unique_ptrI9basicMathSt14default_deleteIS0_EED2Ev
FN:355,_ZNSt10unique_ptrINSt7__cxx1112basic_stringIcSt11char_traitsIcESaIcEEESt14default_deleteIS5_EED2Ev
FNDA:24,_ZNSt10unique_ptrINSt7__cxx1112basic_stringIcSt11char_traitsIcESaIcEEESt14default_deleteIS5_EED2Ev
FN:355,_ZNSt10unique_ptrINSt7__cxx1118basic_stringstreamIcSt11char_traitsIcESaIcEEESt14default_deleteIS5_EED2Ev
FNDA:0,_ZNSt10unique_ptrINSt7__cxx1118basic_stringstreamIcSt11char_traitsIcESaIcEEESt14default_deleteIS5_EED2Ev
FN:413,_ZNKSt10unique_ptrI9basicMathSt14default_deleteIS0_EEptEv
FNDA:24,_ZNKSt10unique_ptrI9basicMathSt14default_deleteIS0_EEptEv
FN:413,_ZNKSt10unique_ptrINSt7__cxx1112basic_stringIcSt11char_traitsIcESaIcEEESt14default_deleteIS5_EEptEv
FNDA:0,_ZNKSt10unique_ptrINSt7__cxx1112basic_stringIcSt11char_traitsIcESaIcEEESt14default_deleteIS5_EEptEv
FN:421,_ZNKSt10unique_ptrI9basicMathSt14default_deleteIS0_EE3getEv
FNDA:24,_ZNKSt10unique_ptrI9basicMathSt14default_deleteIS0_EE3getEv
FN:421,_ZNKSt10unique_ptrINSt7__cxx1112basic_stringIcSt11char_traitsIcESaIcEEESt14default_deleteIS5_EE3getEv
FNDA:0,_ZNKSt10unique_ptrINSt7__cxx1112basic_stringIcSt11char_traitsIcESaIcEEESt14default_deleteIS5_EE3getEv
FN:426,_ZNSt10unique_ptrINSt7__cxx1112basic_stringIcSt11char_traitsIcESaIcEEESt14default_deleteIS5_EE11get_deleterEv
FNDA:0,_ZNSt10unique_ptrINSt7__cxx1112basic_stringIcSt11char_traitsIcESaIcEEESt14default_deleteIS5_EE11get_deleterEv
FN:426,_ZNSt10unique_ptrI9basicMathSt14default_deleteIS0_EE11get_deleterEv
FNDA:24,_ZNSt10unique_ptrI9basicMathSt14default_deleteIS0_EE11get_deleterEv
FN:426,_ZNSt10unique_ptrINSt7__cxx1118basic_stringstreamIcSt11char_traitsIcESaIcEEESt14default_deleteIS5_EE11get_deleterEv
FNDA:0,_ZNSt10unique_ptrINSt7__cxx1118basic_stringstreamIcSt11char_traitsIcESaIcEEESt14default_deleteIS5_EE11get_deleterEv
FN:961,_ZSt11make_uniqueI9basicMathJEENSt9_MakeUniqIT_E15__single_objectEDpOT0_
FNDA:24,_ZSt11make_uniqueI9basicMathJEENSt9_MakeUniqIT_E15__single_objectEDpOT0_
DA:79,24
DA:85,24
DA:86,24
DA:79,0
DA:85,0
DA:86,0
DA:79,0
DA:85,0
DA:86,0
DA:155,24
DA:172,48
DA:172,24
DA:172,0
DA:173,24
DA:173,0
DA:174,24
DA:174,0
DA:174,0
DA:281,24
DA:282,24
DA:283,24
DA:355,24
DA:359,24
DA:360,24
DA:361,24
DA:362,24
DA:363,24
DA:355,24
DA:359,24
DA:360,24
DA:361,0
DA:362,24
DA:363,24
DA:355,0
DA:359,0
DA:360,0
DA:361,0
DA:362,0
DA:363,0
DA:413,24
DA:416,24
DA:413,0
DA:416,0
DA:421,24
DA:422,24
DA:421,0
DA:422,0
DA:426,24
DA:427,24
DA:426,0
DA:427,0
DA:426,0
DA:427,0
DA:961,24
DA:962,24
end_of_record
SF:/usr/local/include/gtest/gtest.h
FN:312,_ZNK7testing15AssertionResultcvbEv
FNDA:24,_ZNK7testing15AssertionResultcvbEv
FN:321,_ZNK7testing15AssertionResult7messageEv
FNDA:0,_ZNK7testing15AssertionResult7messageEv
FN:325,_ZNK7testing15AssertionResult15failure_messageEv
FNDA:0,_ZNK7testing15AssertionResult15failure_messageEv
FN:417,_ZN7testing4Test14SetUpTestSuiteEv
FNDA:0,_ZN7testing4Test14SetUpTestSuiteEv
FN:427,_ZN7testing4Test17TearDownTestSuiteEv
FNDA:0,_ZN7testing4Test17TearDownTestSuiteEv
FN:431,_ZN7testing4Test16TearDownTestCaseEv
FNDA:0,_ZN7testing4Test16TearDownTestCaseEv
FN:432,_ZN7testing4Test13SetUpTestCaseEv
FNDA:0,_ZN7testing4Test13SetUpTestCaseEv
FN:513,_ZN7testing4Test5SetupEv
FNDA:0,_ZN7testing4Test5SetupEv
FN:1504,_ZN7testing8internal18CmpHelperEQFailureIiiEENS_15AssertionResultEPKcS4_RKT_RKT0_
FNDA:0,_ZN7testing8internal18CmpHelperEQFailureIiiEENS_15AssertionResultEPKcS4_RKT_RKT0_
FN:1523,_ZN7testing8internal11CmpHelperEQIiiEENS_15AssertionResultEPKcS4_RKT_RKT0_
FNDA:24,_ZN7testing8internal11CmpHelperEQIiiEENS_15AssertionResultEPKcS4_RKT_RKT0_
FN:1551,_ZN7testing8internal8EqHelper7CompareIiiLPv0EEENS_15AssertionResultEPKcS6_RKT_RKT0_
FNDA:24,_ZN7testing8internal8EqHelper7CompareIiiLPv0EEENS_15AssertionResultEPKcS6_RKT_RKT0_
DA:312,24
DA:321,0
DA:322,0
DA:325,0
DA:417,0
DA:427,0
DA:431,0
DA:432,0
DA:513,0
DA:1504,0
DA:1511,0
DA:1523,24
DA:1527,24
DA:1528,24
DA:1531,0
DA:1551,24
DA:1554,24
end_of_record
SF:/usr/include/c++/11/tuple
FN:80,_ZNSt10_Head_baseILm1ESt14default_deleteI9basicMathELb1EEC2Ev
FNDA:24,_ZNSt10_Head_baseILm1ESt14default_deleteI9basicMathELb1EEC2Ev
FN:124,_ZNSt10_Head_baseILm1ESt14default_deleteI9basicMathELb1EE7_M_headERS3_
FNDA:24,_ZNSt10_Head_baseILm1ESt14default_deleteI9basicMathELb1EE7_M_headERS3_
FN:124,_ZNSt10_Head_baseILm1ESt14default_deleteINSt7__cxx1112basic_stringIcSt11char_traitsIcESaIcEEEELb1EE7_M_headERS8_
FNDA:0,_ZNSt10_Head_baseILm1ESt14default_deleteINSt7__cxx1112basic_stringIcSt11char_traitsIcESaIcEEEELb1EE7_M_headERS8_
FN:124,_ZNSt10_Head_baseILm1ESt14default_deleteINSt7__cxx1118basic_stringstreamIcSt11char_traitsIcESaIcEEEELb1EE7_M_headERS8_
FNDA:0,_ZNSt10_Head_baseILm1ESt14default_deleteINSt7__cxx1118basic_stringstreamIcSt11char_traitsIcESaIcEEEELb1EE7_M_headERS8_
FN:189,_ZNSt10_Head_baseILm0EP9basicMathLb0EEC2Ev
FNDA:24,_ZNSt10_Head_baseILm0EP9basicMathLb0EEC2Ev
FN:233,_ZNSt10_Head_baseILm0EP9basicMathLb0EE7_M_headERS2_
FNDA:48,_ZNSt10_Head_baseILm0EP9basicMathLb0EE7_M_headERS2_
FN:233,_ZNSt10_Head_baseILm0EPNSt7__cxx1112basic_stringIcSt11char_traitsIcESaIcEEELb0EE7_M_headERS7_
FNDA:24,_ZNSt10_Head_baseILm0EPNSt7__cxx1112basic_stringIcSt11char_traitsIcESaIcEEELb0EE7_M_headERS7_
FN:233,_ZNSt10_Head_baseILm0EPNSt7__cxx1118basic_stringstreamIcSt11char_traitsIcESaIcEEELb0EE7_M_headERS7_
FNDA:0,_ZNSt10_Head_baseILm0EPNSt7__cxx1118basic_stringstreamIcSt11char_traitsIcESaIcEEELb0EE7_M_headERS7_
FN:236,_ZNSt10_Head_baseILm0EPNSt7__cxx1112basic_stringIcSt11char_traitsIcESaIcEEELb0EE7_M_headERKS7_
FNDA:0,_ZNSt10_Head_baseILm0EPNSt7__cxx1112basic_stringIcSt11char_traitsIcESaIcEEELb0EE7_M_headERKS7_
FN:236,_ZNSt10_Head_baseILm0EP9basicMathLb0EE7_M_headERKS2_
FNDA:24,_ZNSt10_Head_baseILm0EP9basicMathLb0EE7_M_headERKS2_
FN:268,_ZNSt11_Tuple_implILm0EJPNSt7__cxx1118basic_stringstreamIcSt11char_traitsIcESaIcEEESt14default_deleteIS5_EEE7_M_headERS9_
FNDA:0,_ZNSt11_Tuple_implILm0EJPNSt7__cxx1118basic_stringstreamIcSt11char_traitsIcESaIcEEESt14default_deleteIS5_EEE7_M_headERS9_
FN:268,_ZNSt11_Tuple_implILm0EJPNSt7__cxx1112basic_stringIcSt11char_traitsIcESaIcEEESt14default_deleteIS5_EEE7_M_headERS9_
FNDA:24,_ZNSt11_Tuple_implILm0EJPNSt7__cxx1112basic_stringIcSt11char_traitsIcESaIcEEESt14default_deleteIS5_EEE7_M_headERS9_
FN:268,_ZNSt11_Tuple_implILm0EJP9basicMathSt14default_deleteIS0_EEE7_M_headERS4_
FNDA:48,_ZNSt11_Tuple_implILm0EJP9basicMathSt14default_deleteIS0_EEE7_M_headERS4_
FN:271,_ZNSt11_Tuple_implILm0EJP9basicMathSt14default_deleteIS0_EEE7_M_headERKS4_
FNDA:24,_ZNSt11_Tuple_implILm0EJP9basicMathSt14default_deleteIS0_EEE7_M_headERKS4_
FN:271,_ZNSt11_Tuple_implILm0EJPNSt7__cxx1112basic_stringIcSt11char_traitsIcESaIcEEESt14default_deleteIS5_EEE7_M_headERKS9_
FNDA:0,_ZNSt11_Tuple_implILm0EJPNSt7__cxx1112basic_stringIcSt11char_traitsIcESaIcEEESt14default_deleteIS5_EEE7_M_headERKS9_
FN:279,_ZNSt11_Tuple_implILm0EJP9basicMathSt14default_deleteIS0_EEEC2Ev
FNDA:24,_ZNSt11_Tuple_implILm0EJP9basicMathSt14default_deleteIS0_EEEC2Ev
FN:424,_ZNSt11_Tuple_implILm1EJSt14default_deleteINSt7__cxx1118basic_stringstreamIcSt11char_traitsIcESaIcEEEEEE7_M_headERS8_
FNDA:0,_ZNSt11_Tuple_implILm1EJSt14default_deleteINSt7__cxx1118basic_stringstreamIcSt11char_traitsIcESaIcEEEEEE7_M_headERS8_
FN:424,_ZNSt11_Tuple_implILm1EJSt14default_deleteINSt7__cxx1112basic_stringIcSt11char_traitsIcESaIcEEEEEE7_M_headERS8_
FNDA:0,_ZNSt11_Tuple_implILm1EJSt14default_deleteINSt7__cxx1112basic_stringIcSt11char_traitsIcESaIcEEEEEE7_M_headERS8_
FN:424,_ZNSt11_Tuple_implILm1EJSt14default_deleteI9basicMathEEE7_M_headERS3_
FNDA:24,_ZNSt11_Tuple_implILm1EJSt14default_deleteI9basicMathEEE7_M_headERS3_
FN:430,_ZNSt11_Tuple_implILm1EJSt14default_deleteI9basicMathEEEC2Ev
FNDA:24,_ZNSt11_Tuple_implILm1EJSt14default_deleteI9basicMathEEEC2Ev
FN:1053,_ZNSt5tupleIJP9basicMathSt14default_deleteIS0_EEEC2ILb1ELb1EEEv
FNDA:24,_ZNSt5tupleIJP9basicMathSt14default_deleteIS0_EEEC2ILb1ELb1EEEv
FN:1381,_ZSt12__get_helperILm1ESt14default_deleteI9basicMathEJEERT0_RSt11_Tuple_implIXT_EJS3_DpT1_EE
FNDA:24,_ZSt12__get_helperILm1ESt14default_deleteI9basicMathEJEERT0_RSt11_Tuple_implIXT_EJS3_DpT1_EE
FN:1381,_ZSt12__get_helperILm1ESt14default_deleteINSt7__cxx1112basic_stringIcSt11char_traitsIcESaIcEEEEJEERT0_RSt11_Tuple_implIXT_EJS8_DpT1_EE
FNDA:0,_ZSt12__get_helperILm1ESt14default_deleteINSt7__cxx1112basic_stringIcSt11char_traitsIcESaIcEEEEJEERT0_RSt11_Tuple_implIXT_EJS8_DpT1_EE
FN:1381,_ZSt12__get_helperILm1ESt14default_deleteINSt7__cxx1118basic_stringstreamIcSt11char_traitsIcESaIcEEEEJEERT0_RSt11_Tuple_implIXT_EJS8_DpT1_EE
FNDA:0,_ZSt12__get_helperILm1ESt14default_deleteINSt7__cxx1118basic_stringstreamIcSt11char_traitsIcESaIcEEEEJEERT0_RSt11_Tuple_implIXT_EJS8_DpT1_EE
FN:1381,_ZSt12__get_helperILm0EPNSt7__cxx1118basic_stringstreamIcSt11char_traitsIcESaIcEEEJSt14default_deleteIS5_EEERT0_RSt11_Tuple_implIXT_EJS9_DpT1_EE
FNDA:0,_ZSt12__get_helperILm0EPNSt7__cxx1118basic_stringstreamIcSt11char_traitsIcESaIcEEEJSt14default_deleteIS5_EEERT0_RSt11_Tuple_implIXT_EJS9_DpT1_EE
FN:1381,_ZSt12__get_helperILm0EP9basicMathJSt14default_deleteIS0_EEERT0_RSt11_Tuple_implIXT_EJS4_DpT1_EE
FNDA:48,_ZSt12__get_helperILm0EP9basicMathJSt14default_deleteIS0_EEERT0_RSt11_Tuple_implIXT_EJS4_DpT1_EE
FN:1381,_ZSt12__get_helperILm0EPNSt7__cxx1112basic_stringIcSt11char_traitsIcESaIcEEEJSt14default_deleteIS5_EEERT0_RSt11_Tuple_implIXT_EJS9_DpT1_EE
FNDA:24,_ZSt12__get_helperILm0EPNSt7__cxx1112basic_stringIcSt11char_traitsIcESaIcEEEJSt14default_deleteIS5_EEERT0_RSt11_Tuple_implIXT_EJS9_DpT1_EE
FN:1386,_ZSt12__get_helperILm0EP9basicMathJSt14default_deleteIS0_EEERKT0_RKSt11_Tuple_implIXT_EJS4_DpT1_EE
FNDA:24,_ZSt12__get_helperILm0EP9basicMathJSt14default_deleteIS0_EEERKT0_RKSt11_Tuple_implIXT_EJS4_DpT1_EE
FN:1386,_ZSt12__get_helperILm0EPNSt7__cxx1112basic_stringIcSt11char_traitsIcESaIcEEEJSt14default_deleteIS5_EEERKT0_RKSt11_Tuple_implIXT_EJS9_DpT1_EE
FNDA:0,_ZSt12__get_helperILm0EPNSt7__cxx1112basic_stringIcSt11char_traitsIcESaIcEEEJSt14default_deleteIS5_EEERKT0_RKSt11_Tuple_implIXT_EJS9_DpT1_EE
FN:1397,_ZSt3getILm1EJPNSt7__cxx1112basic_stringIcSt11char_traitsIcESaIcEEESt14default_deleteIS5_EEERNSt13tuple_elementIXT_ESt5tupleIJDpT0_EEE4typeERSD_
FNDA:0,_ZSt3getILm1EJPNSt7__cxx1112basic_stringIcSt11char_traitsIcESaIcEEESt14default_deleteIS5_EEERNSt13tuple_elementIXT_ESt5tupleIJDpT0_EEE4typeERSD_
FN:1397,_ZSt3getILm1EJP9basicMathSt14default_deleteIS0_EEERNSt13tuple_elementIXT_ESt5tupleIJDpT0_EEE4typeERS8_
FNDA:24,_ZSt3getILm1EJP9basicMathSt14default_deleteIS0_EEERNSt13tuple_elementIXT_ESt5tupleIJDpT0_EEE4typeERS8_
FN:1397,_ZSt3getILm1EJPNSt7__cxx1118basic_stringstreamIcSt11char_traitsIcESaIcEEESt14default_deleteIS5_EEERNSt13tuple_elementIXT_ESt5tupleIJDpT0_EEE4typeERSD_
FNDA:0,_ZSt3getILm1EJPNSt7__cxx1118basic_stringstreamIcSt11char_traitsIcESaIcEEESt14default_deleteIS5_EEERNSt13tuple_elementIXT_ESt5tupleIJDpT0_EEE4typeERSD_
FN:1397,_ZSt3getILm0EJP9basicMathSt14default_deleteIS0_EEERNSt13tuple_elementIXT_ESt5tupleIJDpT0_EEE4typeERS8_
FNDA:48,_ZSt3getILm0EJP9basicMathSt14default_deleteIS0_EEERNSt13tuple_elementIXT_ESt5tupleIJDpT0_EEE4typeERS8_
FN:1397,_ZSt3getILm0EJPNSt7__cxx1112basic_stringIcSt11char_traitsIcESaIcEEESt14default_deleteIS5_EEERNSt13tuple_elementIXT_ESt5tupleIJDpT0_EEE4typeERSD_
FNDA:24,_ZSt3getILm0EJPNSt7__cxx1112basic_stringIcSt11char_traitsIcESaIcEEESt14default_deleteIS5_EEERNSt13tuple_elementIXT_ESt5tupleIJDpT0_EEE4typeERSD_
FN:1397,_ZSt3getILm0EJPNSt7__cxx1118basic_stringstreamIcSt11char_traitsIcESaIcEEESt14default_deleteIS5_EEERNSt13tuple_elementIXT_ESt5tupleIJDpT0_EEE4typeERSD_
FNDA:0,_ZSt3getILm0EJPNSt7__cxx1118basic_stringstreamIcSt11char_traitsIcESaIcEEESt14default_deleteIS5_EEERNSt13tuple_elementIXT_ESt5tupleIJDpT0_EEE4typeERSD_
FN:1403,_ZSt3getILm0EJP9basicMathSt14default_deleteIS0_EEERKNSt13tuple_elementIXT_ESt5tupleIJDpT0_EEE4typeERKS8_
FNDA:24,_ZSt3getILm0EJP9basicMathSt14default_deleteIS0_EEERKNSt13tuple_elementIXT_ESt5tupleIJDpT0_EEE4typeERKS8_
FN:1403,_ZSt3getILm0EJPNSt7__cxx1112basic_stringIcSt11char_traitsIcESaIcEEESt14default_deleteIS5_EEERKNSt13tuple_elementIXT_ESt5tupleIJDpT0_EEE4typeERKSD_
FNDA:0,_ZSt3getILm0EJPNSt7__cxx1112basic_stringIcSt11char_traitsIcESaIcEEESt14default_deleteIS5_EEERKNSt13tuple_elementIXT_ESt5tupleIJDpT0_EEE4typeERKSD_
DA:80,24
DA:81,24
DA:124,24
DA:124,0
DA:124,0
DA:189,24
DA:190,24
DA:233,48
DA:233,24
DA:233,0
DA:236,24
DA:236,0
DA:268,48
DA:268,24
DA:268,0
DA:271,24
DA:271,0
DA:279,24
DA:280,24
DA:424,24
DA:424,0
DA:424,0
DA:430,24
DA:431,24
DA:1053,24
DA:1055,24
DA:1381,24
DA:1382,24
DA:1381,0
DA:1382,0
DA:1381,0
DA:1382,0
DA:1381,48
DA:1382,48
DA:1381,24
DA:1382,24
DA:1381,0
DA:1382,0
DA:1386,24
DA:1387,24
DA:1386,0
DA:1387,0
DA:1397,24
DA:1398,24
DA:1397,0
DA:1398,0
DA:1397,0
DA:1398,0
DA:1397,48
DA:1398,48
DA:1397,24
DA:1398,24
DA:1397,0
DA:1398,0
DA:1403,24
DA:1404,24
DA:1403,0
DA:1404,0
end_of_record
SF:/home/yackey/projects/webasm/basicMath/test/basicMathTests.cpp
FN:16,_ZN13BasicMathTestC2Ev
FNDA:24,_ZN13BasicMathTestC2Ev
FN:20,_ZN13BasicMathTestD2Ev
FNDA:24,_ZN13BasicMathTestD2Ev
FN:20,_ZN13BasicMathTestD0Ev
FNDA:0,_ZN13BasicMathTestD0Ev
FN:25,_ZN13BasicMathTest5SetUpEv
FNDA:24,_ZN13BasicMathTest5SetUpEv
FN:31,_ZN13BasicMathTest8TearDownEv
FNDA:24,_ZN13BasicMathTest8TearDownEv
FN:41,_ZN49BasicMathTest_BasicMath_AddTwoInts_ExpectSum_TestC2Ev
FNDA:3,_ZN49BasicMathTest_BasicMath_AddTwoInts_ExpectSum_TestC2Ev
FN:41,_ZN49BasicMathTest_BasicMath_AddTwoInts_ExpectSum_Test8TestBodyEv
FNDA:3,_ZN49BasicMathTest_BasicMath_AddTwoInts_ExpectSum_Test8TestBodyEv
FN:52,_ZN69BasicMathTest_BasicMath_SubtractTwoInts_ExpectPositiveDifference_TestC2Ev
FNDA:3,_ZN69BasicMathTest_BasicMath_SubtractTwoInts_ExpectPositiveDifference_TestC2Ev
FN:52,_ZN69BasicMathTest_BasicMath_SubtractTwoInts_ExpectPositiveDifference_Test8TestBodyEv
FNDA:3,_ZN69BasicMathTest_BasicMath_SubtractTwoInts_ExpectPositiveDifference_Test8TestBodyEv
FN:63,_ZN69BasicMathTest_BasicMath_SubtractTwoInts_ExpectNegativeDifference_Test8TestBodyEv
FNDA:3,_ZN69BasicMathTest_BasicMath_SubtractTwoInts_ExpectNegativeDifference_Test8TestBodyEv
FN:63,_ZN69BasicMathTest_BasicMath_SubtractTwoInts_ExpectNegativeDifference_TestC2Ev
FNDA:3,_ZN69BasicMathTest_BasicMath_SubtractTwoInts_ExpectNegativeDifference_TestC2Ev
FN:74,_ZN59BasicMathTest_BasicMath_MultiplytTwoInts_ExpectProduct_TestC2Ev
FNDA:3,_ZN59BasicMathTest_BasicMath_MultiplytTwoInts_ExpectProduct_TestC2Ev
FN:74,_ZN59BasicMathTest_BasicMath_MultiplytTwoInts_ExpectProduct_Test8TestBodyEv
FNDA:3,_ZN59BasicMathTest_BasicMath_MultiplytTwoInts_ExpectProduct_Test8TestBodyEv
FN:85,_ZN69BasicMathTest_BasicMath_DivideTwoInts_NeitherZero_ExpectQuotient_TestC2Ev
FNDA:3,_ZN69BasicMathTest_BasicMath_DivideTwoInts_NeitherZero_ExpectQuotient_TestC2Ev
FN:85,_ZN69BasicMathTest_BasicMath_DivideTwoInts_NeitherZero_ExpectQuotient_Test8TestBodyEv
FNDA:3,_ZN69BasicMathTest_BasicMath_DivideTwoInts_NeitherZero_ExpectQuotient_Test8TestBodyEv
FN:96,_ZN65BasicMathTest_BasicMath_DivideTwoInts_NeitherZero_ExpectZero_TestC2Ev
FNDA:3,_ZN65BasicMathTest_BasicMath_DivideTwoInts_NeitherZero_ExpectZero_TestC2Ev
FN:96,_ZN65BasicMathTest_BasicMath_DivideTwoInts_NeitherZero_ExpectZero_Test8TestBodyEv
FNDA:3,_ZN65BasicMathTest_BasicMath_DivideTwoInts_NeitherZero_ExpectZero_Test8TestBodyEv
FN:107,_ZN65BasicMathTest_BasicMath_DivideTwoInts_DivisorZero_ExpectZero_TestC2Ev
FNDA:3,_ZN65BasicMathTest_BasicMath_DivideTwoInts_DivisorZero_ExpectZero_TestC2Ev
FN:107,_ZN65BasicMathTest_BasicMath_DivideTwoInts_DivisorZero_ExpectZero_Test8TestBodyEv
FNDA:3,_ZN65BasicMathTest_BasicMath_DivideTwoInts_DivisorZero_ExpectZero_Test8TestBodyEv
FN:118,_ZN66BasicMathTest_BasicMath_DivideTwoInts_DividendZero_ExpectZero_Test8TestBodyEv
FNDA:3,_ZN66BasicMathTest_BasicMath_DivideTwoInts_DividendZero_ExpectZero_Test8TestBodyEv
FN:118,_ZN66BasicMathTest_BasicMath_DivideTwoInts_DividendZero_ExpectZero_TestC2Ev
FNDA:3,_ZN66BasicMathTest_BasicMath_DivideTwoInts_DividendZero_ExpectZero_TestC2Ev
DA:16,24
DA:18,24
DA:20,0
DA:20,24
DA:25,24
DA:29,24
DA:31,24
DA:34,24
DA:41,3
DA:43,3
DA:44,3
DA:45,3
DA:47,3
DA:49,3
DA:50,3
DA:41,3
DA:52,3
DA:54,3
DA:55,3
DA:56,3
DA:58,3
DA:60,3
DA:61,3
DA:52,3
DA:63,3
DA:65,3
DA:66,3
DA:67,3
DA:69,3
DA:71,3
DA:72,3
DA:63,3
DA:74,3
DA:76,3
DA:77,3
DA:78,3
DA:80,3
DA:82,3
DA:83,3
DA:74,3
DA:85,3
DA:87,3
DA:88,3
DA:89,3
DA:91,3
DA:93,3
DA:94,3
DA:85,3
DA:96,3
DA:98,3
DA:99,3
DA:100,3
DA:102,3
DA:104,3
DA:105,3
DA:96,3
DA:107,3
DA:109,3
DA:110,3
DA:111,3
DA:113,3
DA:115,3
DA:116,3
DA:107,3
DA:118,3
DA:120,3
DA:121,3
DA:122,3
DA:124,3
DA:126,3
DA:127,3
DA:118,3
end_of_record
SF:/usr/include/c++/11/bits/move.h
FN:49,_ZSt11__addressofIKcEPT_RS1_
FNDA:81,_ZSt11__addressofIKcEPT_RS1_
FN:49,_ZSt11__addressofIcEPT_RS0_
FNDA:48,_ZSt11__addressofIcEPT_RS0_
FN:104,_ZSt4moveIRP9basicMathEONSt16remove_referenceIT_E4typeEOS4_
FNDA:24,_ZSt4moveIRP9basicMathEONSt16remove_referenceIT_E4typeEOS4_
FN:104,_ZSt4moveIRPNSt7__cxx1112basic_stringIcSt11char_traitsIcESaIcEEEEONSt16remove_referenceIT_E4typeEOS9_
FNDA:0,_ZSt4moveIRPNSt7__cxx1112basic_stringIcSt11char_traitsIcESaIcEEEEONSt16remove_referenceIT_E4typeEOS9_
FN:104,_ZSt4moveIRPNSt7__cxx1118basic_stringstreamIcSt11char_traitsIcESaIcEEEEONSt16remove_referenceIT_E4typeEOS9_
FNDA:0,_ZSt4moveIRPNSt7__cxx1118basic_stringstreamIcSt11char_traitsIcESaIcEEEEONSt16remove_referenceIT_E4typeEOS9_
FN:104,_ZSt4moveIRSaIcEEONSt16remove_referenceIT_E4typeEOS3_
FNDA:24,_ZSt4moveIRSaIcEEONSt16remove_referenceIT_E4typeEOS3_
FN:145,_ZSt9addressofIKcEPT_RS1_
FNDA:81,_ZSt9addressofIKcEPT_RS1_
FN:145,_ZSt9addressofIcEPT_RS0_
FNDA:48,_ZSt9addressofIcEPT_RS0_
DA:49,81
DA:50,81
DA:49,48
DA:50,48
DA:104,24
DA:105,24
DA:104,0
DA:105,0
DA:104,0
DA:105,0
DA:104,24
DA:105,24
DA:145,81
DA:146,81
DA:145,48
DA:146,48
end_of_record
TN:
SF:/home/yackey/projects/webasm/basicMath/src/basicMath.cpp
FN:3,_ZN9basicMath3addEii
FNDA:3,_ZN9basicMath3addEii
FN:8,_ZN9basicMath8subtractEii
FNDA:6,_ZN9basicMath8subtractEii
FN:13,_ZN9basicMath8multiplyEii
FNDA:3,_ZN9basicMath8multiplyEii
FN:18,_ZN9basicMath6divideEii
FNDA:12,_ZN9basicMath6divideEii
DA:3,3
DA:5,3
DA:8,6
DA:10,6
DA:13,3
DA:15,3
DA:18,12
DA:20,12
end_of_record
